target datalayout = "e-m:e-p270:32:32-p271:32:32-p272:64:64-i64:64-i128:128-f80:128-n8:16:32:64-S128"
target triple = "x86_64-pc-linux-gnu"

@.str.67 = private unnamed_addr constant [3 x i8] c"\\\22\00", align 1
@.str.69 = private unnamed_addr constant [3 x i8] c"\\\\\00", align 1
@.str.71 = private unnamed_addr constant [3 x i8] c"\\b\00", align 1
@.str.73 = private unnamed_addr constant [3 x i8] c"\\f\00", align 1
@.str.75 = private unnamed_addr constant [3 x i8] c"\\n\00", align 1
@.str.77 = private unnamed_addr constant [3 x i8] c"\\r\00", align 1
@.str.79 = private unnamed_addr constant [3 x i8] c"\\t\00", align 1
@.str.80 = private unnamed_addr constant [6 x i8] c"\\%03o\00", align 1
@.str.81 = private unnamed_addr constant [3 x i8] c"\\'\00", align 1
@.str.82 = private unnamed_addr constant [3 x i8] c"\\?\00", align 1
@.str.83 = private unnamed_addr constant [3 x i8] c"\\a\00", align 1
@.str.84 = private unnamed_addr constant [3 x i8] c"\\v\00", align 1

; Function Attrs: nounwind uwtable
define internal ptr @h5tools_escape(ptr noundef %0, i64 noundef %1) #0 {
  %3 = alloca ptr, align 8
  %4 = alloca ptr, align 8
  %5 = alloca i64, align 8
  %6 = alloca i64, align 8
  %7 = alloca ptr, align 8
  %8 = alloca [8 x i8], align 1
  %9 = alloca i64, align 8
  %10 = alloca i64, align 8
  %11 = alloca i32, align 4
  store ptr %0, ptr %4, align 8, !tbaa !14
  store i64 %1, ptr %5, align 8, !tbaa !17
  call void @llvm.lifetime.start.p0(i64 8, ptr %6) #12
  call void @llvm.lifetime.start.p0(i64 8, ptr %7) #12
  call void @llvm.lifetime.start.p0(i64 8, ptr %8) #12
  call void @llvm.lifetime.start.p0(i64 8, ptr %9) #12
  %12 = load ptr, ptr %4, align 8, !tbaa !14
  %13 = call i64 @strlen(ptr noundef %12) #13
  store i64 %13, ptr %9, align 8, !tbaa !17
  store i64 0, ptr %6, align 8, !tbaa !17
  br label %14

14:                                               ; preds = %102, %2
  %15 = load i64, ptr %6, align 8, !tbaa !17
  %16 = load i64, ptr %9, align 8, !tbaa !17
  %17 = icmp ult i64 %15, %16
  br i1 %17, label %18, label %105

18:                                               ; preds = %14
  %19 = load ptr, ptr %4, align 8, !tbaa !14
  %20 = load i64, ptr %6, align 8, !tbaa !17
  %21 = getelementptr inbounds nuw i8, ptr %19, i64 %20
  %22 = load i8, ptr %21, align 1, !tbaa !18
  %23 = sext i8 %22 to i32
  switch i32 %23, label %35 [
    i32 39, label %24
    i32 34, label %25
    i32 92, label %26
    i32 63, label %27
    i32 7, label %28
    i32 8, label %29
    i32 12, label %30
    i32 10, label %31
    i32 13, label %32
    i32 9, label %33
    i32 11, label %34
  ]

24:                                               ; preds = %18
  store ptr @.str.81, ptr %7, align 8, !tbaa !14
  br label %60

25:                                               ; preds = %18
  store ptr @.str.67, ptr %7, align 8, !tbaa !14
  br label %60

26:                                               ; preds = %18
  store ptr @.str.69, ptr %7, align 8, !tbaa !14
  br label %60

27:                                               ; preds = %18
  store ptr @.str.82, ptr %7, align 8, !tbaa !14
  br label %60

28:                                               ; preds = %18
  store ptr @.str.83, ptr %7, align 8, !tbaa !14
  br label %60

29:                                               ; preds = %18
  store ptr @.str.71, ptr %7, align 8, !tbaa !14
  br label %60

30:                                               ; preds = %18
  store ptr @.str.73, ptr %7, align 8, !tbaa !14
  br label %60

31:                                               ; preds = %18
  store ptr @.str.75, ptr %7, align 8, !tbaa !14
  br label %60

32:                                               ; preds = %18
  store ptr @.str.77, ptr %7, align 8, !tbaa !14
  br label %60

33:                                               ; preds = %18
  store ptr @.str.79, ptr %7, align 8, !tbaa !14
  br label %60

34:                                               ; preds = %18
  store ptr @.str.84, ptr %7, align 8, !tbaa !14
  br label %60

35:                                               ; preds = %18
  %36 = call ptr @__ctype_b_loc() #16
  %37 = load ptr, ptr %36, align 8, !tbaa !135
  %38 = load ptr, ptr %4, align 8, !tbaa !14
  %39 = load i64, ptr %6, align 8, !tbaa !17
  %40 = getelementptr inbounds nuw i8, ptr %38, i64 %39
  %41 = load i8, ptr %40, align 1, !tbaa !18
  %42 = sext i8 %41 to i32
  %43 = sext i32 %42 to i64
  %44 = getelementptr inbounds i16, ptr %37, i64 %43
  %45 = load i16, ptr %44, align 2, !tbaa !81
  %46 = zext i16 %45 to i32
  %47 = and i32 %46, 16384
  %48 = icmp ne i32 %47, 0
  br i1 %48, label %58, label %49

49:                                               ; preds = %35
  %50 = getelementptr inbounds [8 x i8], ptr %8, i64 0, i64 0
  %51 = load ptr, ptr %4, align 8, !tbaa !14
  %52 = load i64, ptr %6, align 8, !tbaa !17
  %53 = getelementptr inbounds nuw i8, ptr %51, i64 %52
  %54 = load i8, ptr %53, align 1, !tbaa !18
  %55 = zext i8 %54 to i32
  %56 = call i32 (ptr, i64, ptr, ...) @snprintf(ptr noundef %50, i64 noundef 8, ptr noundef @.str.80, i32 noundef %55) #12
  %57 = getelementptr inbounds [8 x i8], ptr %8, i64 0, i64 0
  store ptr %57, ptr %7, align 8, !tbaa !14
  br label %59

58:                                               ; preds = %35
  store ptr null, ptr %7, align 8, !tbaa !14
  br label %59

59:                                               ; preds = %58, %49
  br label %60

60:                                               ; preds = %59, %34, %33, %32, %31, %30, %29, %28, %27, %26, %25, %24
  %61 = load ptr, ptr %7, align 8, !tbaa !14
  %62 = icmp ne ptr %61, null
  br i1 %62, label %63, label %101

63:                                               ; preds = %60
  call void @llvm.lifetime.start.p0(i64 8, ptr %10) #12
  %64 = load ptr, ptr %7, align 8, !tbaa !14
  %65 = call i64 @strlen(ptr noundef %64) #13
  store i64 %65, ptr %10, align 8, !tbaa !17
  %66 = load i64, ptr %9, align 8, !tbaa !17
  %67 = load i64, ptr %10, align 8, !tbaa !17
  %68 = add i64 %66, %67
  %69 = add i64 %68, 1
  %70 = load i64, ptr %5, align 8, !tbaa !17
  %71 = icmp ugt i64 %69, %70
  br i1 %71, label %72, label %73

72:                                               ; preds = %63
  store ptr null, ptr %3, align 8
  store i32 1, ptr %11, align 4
  br label %98

73:                                               ; preds = %63
  %74 = load ptr, ptr %4, align 8, !tbaa !14
  %75 = load i64, ptr %6, align 8, !tbaa !17
  %76 = getelementptr inbounds nuw i8, ptr %74, i64 %75
  %77 = load i64, ptr %10, align 8, !tbaa !17
  %78 = getelementptr inbounds nuw i8, ptr %76, i64 %77
  %79 = load ptr, ptr %4, align 8, !tbaa !14
  %80 = load i64, ptr %6, align 8, !tbaa !17
  %81 = getelementptr inbounds nuw i8, ptr %79, i64 %80
  %82 = getelementptr inbounds i8, ptr %81, i64 1
  %83 = load i64, ptr %9, align 8, !tbaa !17
  %84 = load i64, ptr %6, align 8, !tbaa !17
  %85 = sub i64 %83, %84
  call void @llvm.memmove.p0.p0.i64(ptr align 1 %78, ptr align 1 %82, i64 %85, i1 false)
  %86 = load ptr, ptr %4, align 8, !tbaa !14
  %87 = load i64, ptr %6, align 8, !tbaa !17
  %88 = getelementptr inbounds nuw i8, ptr %86, i64 %87
  %89 = load ptr, ptr %7, align 8, !tbaa !14
  %90 = load i64, ptr %10, align 8, !tbaa !17
  call void @llvm.memcpy.p0.p0.i64(ptr align 1 %88, ptr align 1 %89, i64 %90, i1 false)
  %91 = load i64, ptr %10, align 8, !tbaa !17
  %92 = sub i64 %91, 1
  %93 = load i64, ptr %9, align 8, !tbaa !17
  %94 = add i64 %93, %92
  store i64 %94, ptr %9, align 8, !tbaa !17
  %95 = load i64, ptr %10, align 8, !tbaa !17
  %96 = load i64, ptr %6, align 8, !tbaa !17
  %97 = add i64 %96, %95
  store i64 %97, ptr %6, align 8, !tbaa !17
  store i32 0, ptr %11, align 4
  br label %98

98:                                               ; preds = %73, %72
  call void @llvm.lifetime.end.p0(i64 8, ptr %10) #12
  %99 = load i32, ptr %11, align 4
  switch i32 %99, label %107 [
    i32 0, label %100
  ]

100:                                              ; preds = %98
  br label %101

101:                                              ; preds = %100, %60
  br label %102

102:                                              ; preds = %101
  %103 = load i64, ptr %6, align 8, !tbaa !17
  %104 = add i64 %103, 1
  store i64 %104, ptr %6, align 8, !tbaa !17
  br label %14, !llvm.loop !137

105:                                              ; preds = %14
  %106 = load ptr, ptr %4, align 8, !tbaa !14
  store ptr %106, ptr %3, align 8
  store i32 1, ptr %11, align 4
  br label %107

107:                                              ; preds = %105, %98
  call void @llvm.lifetime.end.p0(i64 8, ptr %9) #12
  call void @llvm.lifetime.end.p0(i64 8, ptr %8) #12
  call void @llvm.lifetime.end.p0(i64 8, ptr %7) #12
  call void @llvm.lifetime.end.p0(i64 8, ptr %6) #12
  %108 = load ptr, ptr %3, align 8
  ret ptr %108
}