; Function Attrs: nofree nounwind uwtable
define internal fastcc noundef ptr @h5tools_escape(ptr noundef nonnull captures(ret: address, provenance) %0) unnamed_addr #16 {
  %2 = alloca [8 x i8], align 1
  call void @llvm.lifetime.start.p0(i64 8, ptr nonnull %2) #21
  %3 = tail call i64 @strlen(ptr noundef nonnull dereferenceable(1) %0) #24
  %.not51 = icmp eq i64 %3, 0
  br i1 %.not51, label %._crit_edge, label %.lr.ph

.lr.ph:                                           ; preds = %1, %37
  %.03348 = phi i64 [ %.235, %37 ], [ %3, %1 ]
  %.03747 = phi i64 [ %38, %37 ], [ 0, %1 ]
  %4 = getelementptr inbounds nuw i8, ptr %0, i64 %.03747
  %5 = load i8, ptr %4, align 1, !tbaa !12
  switch i8 %5, label %16 [
    i8 39, label %26
    i8 34, label %6
    i8 92, label %7
    i8 63, label %8
    i8 7, label %9
    i8 8, label %10
    i8 12, label %11
    i8 10, label %12
    i8 13, label %13
    i8 9, label %14
    i8 11, label %15
  ]

6:                                                ; preds = %.lr.ph
  br label %26

7:                                                ; preds = %.lr.ph
  br label %26

8:                                                ; preds = %.lr.ph
  br label %26

9:                                                ; preds = %.lr.ph
  br label %26

10:                                               ; preds = %.lr.ph
  br label %26

11:                                               ; preds = %.lr.ph
  br label %26

12:                                               ; preds = %.lr.ph
  br label %26

13:                                               ; preds = %.lr.ph
  br label %26

14:                                               ; preds = %.lr.ph
  br label %26

15:                                               ; preds = %.lr.ph
  br label %26

16:                                               ; preds = %.lr.ph
  %17 = tail call ptr @__ctype_b_loc() #26
  %18 = load ptr, ptr %17, align 8, !tbaa !117
  %19 = sext i8 %5 to i64
  %20 = getelementptr inbounds i16, ptr %18, i64 %19
  %21 = load i16, ptr %20, align 2, !tbaa !119
  %22 = and i16 %21, 16384
  %.not = icmp eq i16 %22, 0
  br i1 %.not, label %23, label %37

23:                                               ; preds = %16
  %24 = zext i8 %5 to i32
  %25 = call i32 (ptr, i64, ptr, ...) @snprintf(ptr noundef nonnull dereferenceable(1) %2, i64 noundef 8, ptr noundef nonnull @.str.80, i32 noundef %24) #21
  br label %26

26:                                               ; preds = %23, %15, %14, %13, %12, %11, %10, %9, %8, %7, %6, %.lr.ph
  %.036.ph = phi ptr [ @.str.81, %.lr.ph ], [ @.str.67, %6 ], [ @.str.69, %7 ], [ @.str.82, %8 ], [ @.str.83, %9 ], [ @.str.71, %10 ], [ @.str.73, %11 ], [ @.str.75, %12 ], [ @.str.77, %13 ], [ @.str.79, %14 ], [ @.str.84, %15 ], [ %2, %23 ]
  %27 = call i64 @strlen(ptr noundef nonnull dereferenceable(1) %.036.ph) #24
  %28 = add i64 %.03348, 1
  %29 = add i64 %28, %27
  %30 = icmp ult i64 %29, 1025
  br i1 %30, label %.thread44, label %._crit_edge

.thread44:                                        ; preds = %26
  %31 = getelementptr inbounds nuw i8, ptr %4, i64 %27
  %32 = getelementptr inbounds nuw i8, ptr %4, i64 1
  %33 = sub i64 %.03348, %.03747
  tail call void @llvm.memmove.p0.p0.i64(ptr nonnull align 1 %31, ptr nonnull align 1 %32, i64 %33, i1 false)
  call void @llvm.memcpy.p0.p0.i64(ptr nonnull align 1 %4, ptr nonnull align 1 %.036.ph, i64 %27, i1 false)
  %34 = add i64 %.03348, -1
  %35 = add i64 %34, %27
  %36 = add i64 %27, %.03747
  br label %37

37:                                               ; preds = %.thread44, %16
  %.239 = phi i64 [ %.03747, %16 ], [ %36, %.thread44 ]
  %.235 = phi i64 [ %.03348, %16 ], [ %35, %.thread44 ]
  %38 = add i64 %.239, 1
  %39 = icmp ult i64 %38, %.235
  br i1 %39, label %.lr.ph, label %._crit_edge, !llvm.loop !121

._crit_edge:                                      ; preds = %37, %26, %1
  %.2 = phi ptr [ %0, %1 ], [ null, %26 ], [ %0, %37 ]
  call void @llvm.lifetime.end.p0(i64 8, ptr nonnull %2) #21
  ret ptr %.2
}